target datalayout = "e-m:e-p270:32:32-p271:32:32-p272:64:64-i64:64-i128:128-f80:128-n8:16:32:64-S128"
target triple = "x86_64-pc-linux-gnu"

%struct.buf_t = type { i32, ptr, i32, i32, i8, i8 }
%struct.dbd_step_comp_msg = type { i32, i64, i64, i32, ptr, i64, ptr, i32, i64, i16, %struct.slurm_step_id_msg, i32 }
%struct.slurm_step_id_msg = type { i64, i32, i32, i32 }

@.str = private unnamed_addr constant [16 x i8] c"slurmdbd_pack.c\00", align 1
@__func__._unpack_step_complete_msg = private unnamed_addr constant [26 x i8] c"_unpack_step_complete_msg\00", align 1
@.str.6 = private unnamed_addr constant [68 x i8] c"slurmdbd_unpack_step_complete_msg:unpack_error: size_buf(buffer) %u\00", align 1

; Function Attrs: nounwind uwtable
define internal i32 @_unpack_step_complete_msg(ptr noundef %0, i16 noundef zeroext %1, ptr noundef %2) #0 {
  %4 = alloca i32, align 4
  %5 = alloca ptr, align 8
  %6 = alloca i16, align 2
  %7 = alloca ptr, align 8
  %8 = alloca ptr, align 8
  %9 = alloca i32, align 4
  %10 = alloca i32, align 4
  store ptr %0, ptr %5, align 8
  store i16 %1, ptr %6, align 2
  store ptr %2, ptr %7, align 8
  call void @llvm.lifetime.start.p0(i64 8, ptr %8) #5
  %11 = call ptr @slurm_xcalloc(i64 noundef 1, i64 noundef 112, i1 noundef zeroext true, i1 noundef zeroext false, ptr noundef @.str, i32 noundef 1182, ptr noundef @__func__._unpack_step_complete_msg)
  store ptr %11, ptr %8, align 8
  %12 = load ptr, ptr %8, align 8
  %13 = load ptr, ptr %5, align 8
  store ptr %12, ptr %13, align 8
  %14 = load i16, ptr %6, align 2
  %15 = zext i16 %14 to i32
  %16 = icmp sge i32 %15, 10240
  br i1 %16, label %17, label %134

17:                                               ; preds = %3
  br label %18

18:                                               ; preds = %17
  %19 = load ptr, ptr %8, align 8
  %20 = getelementptr inbounds nuw %struct.dbd_step_comp_msg, ptr %19, i32 0, i32 0
  %21 = load ptr, ptr %7, align 8
  %22 = call i32 @unpack32(ptr noundef %20, ptr noundef %21)
  %23 = icmp ne i32 %22, 0
  br i1 %23, label %24, label %25

24:                                               ; preds = %18
  br label %136

25:                                               ; preds = %18
  br label %26

26:                                               ; preds = %25
  br label %27

27:                                               ; preds = %26
  br label %28

28:                                               ; preds = %27
  %29 = load ptr, ptr %8, align 8
  %30 = getelementptr inbounds nuw %struct.dbd_step_comp_msg, ptr %29, i32 0, i32 1
  %31 = load ptr, ptr %7, align 8
  %32 = call i32 @unpack64(ptr noundef %30, ptr noundef %31)
  %33 = icmp ne i32 %32, 0
  br i1 %33, label %34, label %35

34:                                               ; preds = %28
  br label %136

35:                                               ; preds = %28
  br label %36

36:                                               ; preds = %35
  br label %37

37:                                               ; preds = %36
  br label %38

38:                                               ; preds = %37
  %39 = load ptr, ptr %8, align 8
  %40 = getelementptr inbounds nuw %struct.dbd_step_comp_msg, ptr %39, i32 0, i32 2
  %41 = load ptr, ptr %7, align 8
  %42 = call i32 @unpack_time(ptr noundef %40, ptr noundef %41)
  %43 = icmp ne i32 %42, 0
  br i1 %43, label %44, label %45

44:                                               ; preds = %38
  br label %136

45:                                               ; preds = %38
  br label %46

46:                                               ; preds = %45
  br label %47

47:                                               ; preds = %46
  br label %48

48:                                               ; preds = %47
  %49 = load ptr, ptr %8, align 8
  %50 = getelementptr inbounds nuw %struct.dbd_step_comp_msg, ptr %49, i32 0, i32 3
  %51 = load ptr, ptr %7, align 8
  %52 = call i32 @unpack32(ptr noundef %50, ptr noundef %51)
  %53 = icmp ne i32 %52, 0
  br i1 %53, label %54, label %55

54:                                               ; preds = %48
  br label %136

55:                                               ; preds = %48
  br label %56

56:                                               ; preds = %55
  br label %57

57:                                               ; preds = %56
  %58 = load ptr, ptr %8, align 8
  %59 = getelementptr inbounds nuw %struct.dbd_step_comp_msg, ptr %58, i32 0, i32 4
  %60 = load i16, ptr %6, align 2
  %61 = load ptr, ptr %7, align 8
  %62 = call i32 @jobacctinfo_unpack(ptr noundef %59, i16 noundef zeroext %60, i16 noundef zeroext 1, ptr noundef %61, i1 noundef zeroext true)
  br label %63

63:                                               ; preds = %57
  %64 = load ptr, ptr %8, align 8
  %65 = getelementptr inbounds nuw %struct.dbd_step_comp_msg, ptr %64, i32 0, i32 5
  %66 = load ptr, ptr %7, align 8
  %67 = call i32 @unpack_time(ptr noundef %65, ptr noundef %66)
  %68 = icmp ne i32 %67, 0
  br i1 %68, label %69, label %70

69:                                               ; preds = %63
  br label %136

70:                                               ; preds = %63
  br label %71

71:                                               ; preds = %70
  br label %72

72:                                               ; preds = %71
  br label %73

73:                                               ; preds = %72
  call void @llvm.lifetime.start.p0(i64 4, ptr %9) #5
  %74 = load ptr, ptr %8, align 8
  %75 = getelementptr inbounds nuw %struct.dbd_step_comp_msg, ptr %74, i32 0, i32 6
  %76 = load ptr, ptr %7, align 8
  %77 = call i32 @unpackstr_xmalloc_chooser(ptr noundef %75, ptr noundef %9, ptr noundef %76)
  %78 = icmp ne i32 %77, 0
  br i1 %78, label %79, label %80

79:                                               ; preds = %73
  store i32 4, ptr %10, align 4
  br label %81

80:                                               ; preds = %73
  store i32 0, ptr %10, align 4
  br label %81

81:                                               ; preds = %79, %80
  call void @llvm.lifetime.end.p0(i64 4, ptr %9) #5
  %82 = load i32, ptr %10, align 4
  switch i32 %82, label %152 [
    i32 0, label %83
    i32 4, label %136
  ]

83:                                               ; preds = %81
  br label %84

84:                                               ; preds = %83
  br label %85

85:                                               ; preds = %84
  br label %86

86:                                               ; preds = %85
  %87 = load ptr, ptr %8, align 8
  %88 = getelementptr inbounds nuw %struct.dbd_step_comp_msg, ptr %87, i32 0, i32 7
  %89 = load ptr, ptr %7, align 8
  %90 = call i32 @unpack32(ptr noundef %88, ptr noundef %89)
  %91 = icmp ne i32 %90, 0
  br i1 %91, label %92, label %93

92:                                               ; preds = %86
  br label %136

93:                                               ; preds = %86
  br label %94

94:                                               ; preds = %93
  br label %95

95:                                               ; preds = %94
  br label %96

96:                                               ; preds = %95
  %97 = load ptr, ptr %8, align 8
  %98 = getelementptr inbounds nuw %struct.dbd_step_comp_msg, ptr %97, i32 0, i32 8
  %99 = load ptr, ptr %7, align 8
  %100 = call i32 @unpack_time(ptr noundef %98, ptr noundef %99)
  %101 = icmp ne i32 %100, 0
  br i1 %101, label %102, label %103

102:                                              ; preds = %96
  br label %136

103:                                              ; preds = %96
  br label %104

104:                                              ; preds = %103
  br label %105

105:                                              ; preds = %104
  br label %106

106:                                              ; preds = %105
  %107 = load ptr, ptr %8, align 8
  %108 = getelementptr inbounds nuw %struct.dbd_step_comp_msg, ptr %107, i32 0, i32 9
  %109 = load ptr, ptr %7, align 8
  %110 = call i32 @unpack16(ptr noundef %108, ptr noundef %109)
  %111 = icmp ne i32 %110, 0
  br i1 %111, label %112, label %113

112:                                              ; preds = %106
  br label %136

113:                                              ; preds = %106
  br label %114

114:                                              ; preds = %113
  br label %115

115:                                              ; preds = %114
  %116 = load ptr, ptr %8, align 8
  %117 = getelementptr inbounds nuw %struct.dbd_step_comp_msg, ptr %116, i32 0, i32 10
  %118 = load ptr, ptr %7, align 8
  %119 = load i16, ptr %6, align 2
  %120 = call i32 @unpack_step_id_members(ptr noundef %117, ptr noundef %118, i16 noundef zeroext %119)
  %121 = icmp ne i32 %120, 0
  br i1 %121, label %122, label %123

122:                                              ; preds = %115
  br label %136

123:                                              ; preds = %115
  br label %124

124:                                              ; preds = %123
  %125 = load ptr, ptr %8, align 8
  %126 = getelementptr inbounds nuw %struct.dbd_step_comp_msg, ptr %125, i32 0, i32 11
  %127 = load ptr, ptr %7, align 8
  %128 = call i32 @unpack32(ptr noundef %126, ptr noundef %127)
  %129 = icmp ne i32 %128, 0
  br i1 %129, label %130, label %131

130:                                              ; preds = %124
  br label %136

131:                                              ; preds = %124
  br label %132

132:                                              ; preds = %131
  br label %133

133:                                              ; preds = %132
  br label %135

134:                                              ; preds = %3
  br label %136

135:                                              ; preds = %133
  store i32 0, ptr %4, align 4
  store i32 1, ptr %10, align 4
  br label %152

136:                                              ; preds = %81, %134, %130, %122, %112, %102, %92, %69, %54, %44, %34, %24
  br label %137

137:                                              ; preds = %136
  br label %138

138:                                              ; preds = %137
  %139 = call i32 @get_log_level()
  %140 = icmp sge i32 %139, 6
  br i1 %140, label %141, label %145

141:                                              ; preds = %138
  %142 = load ptr, ptr %7, align 8
  %143 = getelementptr inbounds nuw %struct.buf_t, ptr %142, i32 0, i32 2
  %144 = load i32, ptr %143, align 8
  call void (i32, ptr, ...) @log_var(i32 noundef 6, ptr noundef @.str.6, i32 noundef %144)
  br label %145

145:                                              ; preds = %141, %138
  br label %146

146:                                              ; preds = %145
  br label %147

147:                                              ; preds = %146
  br label %148

148:                                              ; preds = %147
  br label %149

149:                                              ; preds = %148
  %150 = load ptr, ptr %8, align 8
  call void @slurmdbd_free_step_complete_msg(ptr noundef %150)
  %151 = load ptr, ptr %5, align 8
  store ptr null, ptr %151, align 8
  store i32 -1, ptr %4, align 4
  store i32 1, ptr %10, align 4
  br label %152

152:                                              ; preds = %149, %135, %81
  call void @llvm.lifetime.end.p0(i64 8, ptr %8) #5
  %153 = load i32, ptr %4, align 4
  ret i32 %153
}