; Function Attrs: nounwind uwtable
define internal fastcc range(i32 -1, 1) i32 @_unpack_step_complete_msg(ptr noundef writeonly captures(none) initializes((0, 8)) %0, i16 noundef zeroext %1, ptr noundef %2) unnamed_addr #0 {
  %4 = alloca i32, align 4
  %5 = tail call ptr @slurm_xcalloc(i64 noundef 1, i64 noundef 112, i1 noundef zeroext true, i1 noundef zeroext false, ptr noundef nonnull @.str, i32 noundef 1182, ptr noundef nonnull @__func__._unpack_step_complete_msg) #5
  store ptr %5, ptr %0, align 8
  %6 = icmp ugt i16 %1, 10239
  br i1 %6, label %7, label %41

7:                                                ; preds = %3
  %8 = tail call i32 @unpack32(ptr noundef %5, ptr noundef %2) #5
  %.not = icmp eq i32 %8, 0
  br i1 %.not, label %9, label %41

9:                                                ; preds = %7
  %10 = getelementptr inbounds nuw i8, ptr %5, i64 8
  %11 = tail call i32 @unpack64(ptr noundef nonnull %10, ptr noundef %2) #5
  %.not34 = icmp eq i32 %11, 0
  br i1 %.not34, label %12, label %41

12:                                               ; preds = %9
  %13 = getelementptr inbounds nuw i8, ptr %5, i64 16
  %14 = tail call i32 @unpack_time(ptr noundef nonnull %13, ptr noundef %2) #5
  %.not35 = icmp eq i32 %14, 0
  br i1 %.not35, label %15, label %41

15:                                               ; preds = %12
  %16 = getelementptr inbounds nuw i8, ptr %5, i64 24
  %17 = tail call i32 @unpack32(ptr noundef nonnull %16, ptr noundef %2) #5
  %.not36 = icmp eq i32 %17, 0
  br i1 %.not36, label %18, label %41

18:                                               ; preds = %15
  %19 = getelementptr inbounds nuw i8, ptr %5, i64 32
  %20 = tail call i32 @jobacctinfo_unpack(ptr noundef nonnull %19, i16 noundef zeroext %1, i16 noundef zeroext 1, ptr noundef %2, i1 noundef zeroext true) #5
  %21 = getelementptr inbounds nuw i8, ptr %5, i64 40
  %22 = tail call i32 @unpack_time(ptr noundef nonnull %21, ptr noundef %2) #5
  %.not37 = icmp eq i32 %22, 0
  br i1 %.not37, label %23, label %41

23:                                               ; preds = %18
  call void @llvm.lifetime.start.p0(i64 4, ptr nonnull %4) #5
  %24 = getelementptr inbounds nuw i8, ptr %5, i64 48
  %25 = call i32 @unpackstr_xmalloc_chooser(ptr noundef nonnull %24, ptr noundef nonnull %4, ptr noundef %2) #5
  %.not38 = icmp eq i32 %25, 0
  call void @llvm.lifetime.end.p0(i64 4, ptr nonnull %4) #5
  br i1 %.not38, label %26, label %41

26:                                               ; preds = %23
  %27 = getelementptr inbounds nuw i8, ptr %5, i64 56
  %28 = call i32 @unpack32(ptr noundef nonnull %27, ptr noundef %2) #5
  %.not39 = icmp eq i32 %28, 0
  br i1 %.not39, label %29, label %41

29:                                               ; preds = %26
  %30 = getelementptr inbounds nuw i8, ptr %5, i64 64
  %31 = call i32 @unpack_time(ptr noundef nonnull %30, ptr noundef %2) #5
  %.not40 = icmp eq i32 %31, 0
  br i1 %.not40, label %32, label %41

32:                                               ; preds = %29
  %33 = getelementptr inbounds nuw i8, ptr %5, i64 72
  %34 = call i32 @unpack16(ptr noundef nonnull %33, ptr noundef %2) #5
  %.not41 = icmp eq i32 %34, 0
  br i1 %.not41, label %35, label %41

35:                                               ; preds = %32
  %36 = getelementptr inbounds nuw i8, ptr %5, i64 80
  %37 = call i32 @unpack_step_id_members(ptr noundef nonnull %36, ptr noundef %2, i16 noundef zeroext %1) #5
  %.not42 = icmp eq i32 %37, 0
  br i1 %.not42, label %38, label %41

38:                                               ; preds = %35
  %39 = getelementptr inbounds nuw i8, ptr %5, i64 104
  %40 = call i32 @unpack32(ptr noundef nonnull %39, ptr noundef %2) #5
  %.not43 = icmp eq i32 %40, 0
  br i1 %.not43, label %48, label %41

41:                                               ; preds = %23, %3, %38, %35, %32, %29, %26, %18, %15, %12, %9, %7
  %42 = call i32 @get_log_level() #5
  %43 = icmp sgt i32 %42, 5
  br i1 %43, label %44, label %47

44:                                               ; preds = %41
  %45 = getelementptr inbounds nuw i8, ptr %2, i64 16
  %46 = load i32, ptr %45, align 8
  call void (i32, ptr, ...) @log_var(i32 noundef 6, ptr noundef nonnull @.str.6, i32 noundef %46) #5
  br label %47

47:                                               ; preds = %44, %41
  call void @slurmdbd_free_step_complete_msg(ptr noundef %5) #5
  store ptr null, ptr %0, align 8
  br label %48

48:                                               ; preds = %38, %47
  %.033 = phi i32 [ -1, %47 ], [ 0, %38 ]
  ret i32 %.033
}